CCS PCM C Compiler, Version 5.015, 5967               27-mar.-23 22:23

               Filename:   C:\Users\andres\Documents\pic\MOTOR PASO A PASO\motor_pasoapaso.lst

               ROM used:   172 words (2%)
                           Largest free fragment is 2048
               RAM used:   7 (2%) at main() level
                           8 (2%) worst case
               Stack used: 1 locations
               Stack size: 8

*
0000:  MOVLW  00
0001:  MOVWF  0A
0002:  GOTO   041
0003:  NOP
.................... #INCLUDE<16f887.h> 
.................... //////////// Standard Header file for the PIC16F887 device //////////////// 
.................... /////////////////////////////////////////////////////////////////////////// 
.................... ////        (C) Copyright 1996, 2013 Custom Computer Services          //// 
.................... //// This source code may only be used by licensed users of the CCS C  //// 
.................... //// compiler.  This source code may only be distributed to other      //// 
.................... //// licensed users of the CCS C compiler.  No other use, reproduction //// 
.................... //// or distribution is permitted without written permission.          //// 
.................... //// Derivative programs created using this software in object code    //// 
.................... //// form are not restricted in any way.                               //// 
.................... /////////////////////////////////////////////////////////////////////////// 
.................... #device PIC16F887 
0004:  BCF    0A.0
0005:  BCF    0A.1
0006:  BCF    0A.2
0007:  ADDWF  02,F
0008:  RETLW  08
0009:  RETLW  04
000A:  RETLW  02
000B:  RETLW  01
000C:  BCF    0A.0
000D:  BCF    0A.1
000E:  BCF    0A.2
000F:  ADDWF  02,F
0010:  RETLW  01
0011:  RETLW  02
0012:  RETLW  04
0013:  RETLW  08
0014:  BCF    0A.0
0015:  BCF    0A.1
0016:  BCF    0A.2
0017:  ADDWF  02,F
0018:  RETLW  08
0019:  RETLW  0C
001A:  RETLW  04
001B:  RETLW  06
001C:  RETLW  02
001D:  RETLW  03
001E:  RETLW  01
001F:  RETLW  09
0020:  BCF    0A.0
0021:  BCF    0A.1
0022:  BCF    0A.2
0023:  ADDWF  02,F
0024:  RETLW  09
0025:  RETLW  01
0026:  RETLW  03
0027:  RETLW  02
0028:  RETLW  06
0029:  RETLW  04
002A:  RETLW  0C
002B:  RETLW  08
....................  
.................... #list 
....................  
.................... #INCLUDE<lcd.c> 
.................... /////////////////////////////////////////////////////////////////////////////// 
.................... ////                             LCD.C                                     //// 
.................... ////                 Driver for common LCD modules                         //// 
.................... ////                                                                       //// 
.................... ////  lcd_init()   Must be called before any other function.               //// 
.................... ////                                                                       //// 
.................... ////  lcd_putc(c)  Will display c on the next position of the LCD.         //// 
.................... ////                 \a  Set cursor position to upper left                 //// 
.................... ////                 \f  Clear display, set cursor to upper left           //// 
.................... ////                 \n  Go to start of second line                        //// 
.................... ////                 \b  Move back one position                            //// 
.................... ////              If LCD_EXTENDED_NEWLINE is defined, the \n character     //// 
.................... ////              will erase all remanining characters on the current      //// 
.................... ////              line, and move the cursor to the beginning of the next   //// 
.................... ////              line.                                                    //// 
.................... ////              If LCD_EXTENDED_NEWLINE is defined, the \r character     //// 
.................... ////              will move the cursor to the start of the current         //// 
.................... ////              line.                                                    //// 
.................... ////                                                                       //// 
.................... ////  lcd_gotoxy(x,y) Set write position on LCD (upper left is 1,1)        //// 
.................... ////                                                                       //// 
.................... ////  lcd_getc(x,y)   Returns character at position x,y on LCD             //// 
.................... ////                                                                       //// 
.................... ////  lcd_cursor_on(int1 on)   Turn the cursor on (on=TRUE) or off         //// 
.................... ////              (on=FALSE).                                              //// 
.................... ////                                                                       //// 
.................... ////  lcd_set_cgram_char(w, *p)   Write a custom character to the CGRAM.   //// 
.................... ////                                                                       //// 
.................... ////                                                                       //// 
.................... ////  CONFIGURATION                                                        //// 
.................... ////  The LCD can be configured in one of two ways: a.) port access or     //// 
.................... ////  b.) pin access.  Port access requires the entire 7 bit interface     //// 
.................... ////  connected to one GPIO port, and the data bits (D4:D7 of the LCD)     //// 
.................... ////  connected to sequential pins on the GPIO.  Pin access                //// 
.................... ////  has no requirements, all 7 bits of the control interface can         //// 
.................... ////  can be connected to any GPIO using several ports.                    //// 
.................... ////                                                                       //// 
.................... ////  To use port access, #define LCD_DATA_PORT to the SFR location of     //// 
.................... ////  of the GPIO port that holds the interface, -AND- edit LCD_PIN_MAP    //// 
.................... ////  of this file to configure the pin order.  If you are using a         //// 
.................... ////  baseline PIC (PCB), then LCD_OUTPUT_MAP and LCD_INPUT_MAP also must  //// 
.................... ////  be defined.                                                          //// 
.................... ////                                                                       //// 
.................... ////  Example of port access:                                              //// 
.................... ////     #define LCD_DATA_PORT getenv("SFR:PORTD")                         //// 
.................... ////                                                                       //// 
.................... ////  To use pin access, the following pins must be defined:               //// 
.................... ////     LCD_ENABLE_PIN                                                    //// 
.................... ////     LCD_RS_PIN                                                        //// 
.................... ////     LCD_RW_PIN                                                        //// 
.................... ////     LCD_DATA4                                                         //// 
.................... ////     LCD_DATA5                                                         //// 
.................... ////     LCD_DATA6                                                         //// 
.................... ////     LCD_DATA7                                                         //// 
.................... ////                                                                       //// 
.................... ////  Example of pin access:                                               //// 
.................... ////     #define LCD_ENABLE_PIN  PIN_E0                                    //// 
.................... ////     #define LCD_RS_PIN      PIN_E1                                    //// 
.................... ////     #define LCD_RW_PIN      PIN_E2                                    //// 
.................... ////     #define LCD_DATA4       PIN_D4                                    //// 
.................... ////     #define LCD_DATA5       PIN_D5                                    //// 
.................... ////     #define LCD_DATA6       PIN_D6                                    //// 
.................... ////     #define LCD_DATA7       PIN_D7                                    //// 
.................... ////                                                                       //// 
.................... /////////////////////////////////////////////////////////////////////////////// 
.................... ////        (C) Copyright 1996,2010 Custom Computer Services           //// 
.................... //// This source code may only be used by licensed users of the CCS C  //// 
.................... //// compiler.  This source code may only be distributed to other      //// 
.................... //// licensed users of the CCS C compiler.  No other use, reproduction //// 
.................... //// or distribution is permitted without written permission.          //// 
.................... //// Derivative programs created using this software in object code    //// 
.................... //// form are not restricted in any way.                               //// 
.................... /////////////////////////////////////////////////////////////////////////// 
....................  
.................... #ifndef __LCD_C__ 
.................... #define __LCD_C__ 
....................  
.................... // define the pinout. 
.................... // only required if port access is being used. 
.................... typedef struct   
.................... {                            // This structure is overlayed 
....................    int1 enable;           // on to an I/O port to gain 
....................    int1 rs;               // access to the LCD pins. 
....................    int1 rw;               // The bits are allocated from 
....................    int1 unused;           // low order up.  ENABLE will 
....................    unsigned int     data : 4;         // be LSB pin of that port. 
....................   #if defined(__PCD__)       // The port used will be LCD_DATA_PORT. 
....................    unsigned int    reserved: 8; 
....................   #endif 
.................... } LCD_PIN_MAP; 
....................  
.................... // this is to improve compatability with previous LCD drivers that accepted 
.................... // a define labeled 'use_portb_lcd' that configured the LCD onto port B. 
.................... #if ((defined(use_portb_lcd)) && (use_portb_lcd==TRUE)) 
....................  #define LCD_DATA_PORT getenv("SFR:PORTB") 
.................... #endif 
....................  
.................... #if defined(__PCB__) 
....................    // these definitions only need to be modified for baseline PICs. 
....................    // all other PICs use LCD_PIN_MAP or individual LCD_xxx pin definitions. 
.................... /*                                    EN, RS,   RW,   UNUSED,  DATA  */ 
....................  const LCD_PIN_MAP LCD_OUTPUT_MAP =  {0,  0,    0,    0,       0}; 
....................  const LCD_PIN_MAP LCD_INPUT_MAP =   {0,  0,    0,    0,       0xF}; 
.................... #endif 
....................  
.................... ////////////////////// END CONFIGURATION /////////////////////////////////// 
....................  
.................... #ifndef LCD_ENABLE_PIN 
....................    #define lcd_output_enable(x) lcdlat.enable=x 
....................    #define lcd_enable_tris()   lcdtris.enable=0 
.................... #else 
....................    #define lcd_output_enable(x) output_bit(LCD_ENABLE_PIN, x) 
....................    #define lcd_enable_tris()  output_drive(LCD_ENABLE_PIN) 
.................... #endif 
....................  
.................... #ifndef LCD_RS_PIN 
....................    #define lcd_output_rs(x) lcdlat.rs=x 
....................    #define lcd_rs_tris()   lcdtris.rs=0 
.................... #else 
....................    #define lcd_output_rs(x) output_bit(LCD_RS_PIN, x) 
....................    #define lcd_rs_tris()  output_drive(LCD_RS_PIN) 
.................... #endif 
....................  
.................... #ifndef LCD_RW_PIN 
....................    #define lcd_output_rw(x) lcdlat.rw=x 
....................    #define lcd_rw_tris()   lcdtris.rw=0 
.................... #else 
....................    #define lcd_output_rw(x) output_bit(LCD_RW_PIN, x) 
....................    #define lcd_rw_tris()  output_drive(LCD_RW_PIN) 
.................... #endif 
....................  
.................... // original version of this library incorrectly labeled LCD_DATA0 as LCD_DATA4, 
.................... // LCD_DATA1 as LCD_DATA5, and so on.  this block of code makes the driver 
.................... // compatible with any code written for the original library 
.................... #if (defined(LCD_DATA0) && defined(LCD_DATA1) && defined(LCD_DATA2) && defined(LCD_DATA3) && !defined(LCD_DATA4) && !defined(LCD_DATA5) && !defined(LCD_DATA6) && !defined(LCD_DATA7)) 
....................    #define  LCD_DATA4    LCD_DATA0 
....................    #define  LCD_DATA5    LCD_DATA1 
....................    #define  LCD_DATA6    LCD_DATA2 
....................    #define  LCD_DATA7    LCD_DATA3 
.................... #endif 
....................  
.................... #ifndef LCD_DATA4 
.................... #ifndef LCD_DATA_PORT 
....................    #if defined(__PCB__) 
....................       #define LCD_DATA_PORT      0x06     //portb 
....................       #define set_tris_lcd(x)   set_tris_b(x) 
....................    #else 
....................      #if defined(PIN_D0) 
....................       #define LCD_DATA_PORT      getenv("SFR:PORTD")     //portd 
....................      #else 
....................       #define LCD_DATA_PORT      getenv("SFR:PORTB")     //portb 
....................      #endif 
....................    #endif    
.................... #endif 
....................  
.................... #if defined(__PCB__) 
....................    LCD_PIN_MAP lcd, lcdlat; 
....................    #byte lcd = LCD_DATA_PORT 
....................    #byte lcdlat = LCD_DATA_PORT 
.................... #elif defined(__PCM__) 
....................    LCD_PIN_MAP lcd, lcdlat, lcdtris; 
....................    #byte lcd = LCD_DATA_PORT 
....................    #byte lcdlat = LCD_DATA_PORT 
....................    #byte lcdtris = LCD_DATA_PORT+0x80 
.................... #elif defined(__PCH__) 
....................    LCD_PIN_MAP lcd, lcdlat, lcdtris; 
....................    #byte lcd = LCD_DATA_PORT 
....................    #byte lcdlat = LCD_DATA_PORT+9 
....................    #byte lcdtris = LCD_DATA_PORT+0x12 
.................... #elif defined(__PCD__) 
....................    LCD_PIN_MAP lcd, lcdlat, lcdtris; 
....................    #word lcd = LCD_DATA_PORT 
....................    #word lcdlat = LCD_DATA_PORT+2 
....................    #word lcdtris = LCD_DATA_PORT-0x02 
.................... #endif 
.................... #endif   //LCD_DATA4 not defined 
....................  
.................... #ifndef LCD_TYPE 
....................    #define LCD_TYPE 2           // 0=5x7, 1=5x10, 2=2 lines 
.................... #endif 
....................  
.................... #ifndef LCD_LINE_TWO 
....................    #define LCD_LINE_TWO 0x40    // LCD RAM address for the second line 
.................... #endif 
....................  
.................... #ifndef LCD_LINE_LENGTH 
....................    #define LCD_LINE_LENGTH 20 
.................... #endif 
....................  
.................... unsigned int8 lcd_read_nibble(void); 
....................  
.................... unsigned int8 lcd_read_byte(void) 
.................... { 
....................    unsigned int8 low,high; 
....................  
....................  #if defined(__PCB__) 
....................    set_tris_lcd(LCD_INPUT_MAP); 
....................  #else 
....................   #if (defined(LCD_DATA4) && defined(LCD_DATA5) && defined(LCD_DATA6) && defined(LCD_DATA7)) 
....................    output_float(LCD_DATA4); 
....................    output_float(LCD_DATA5); 
....................    output_float(LCD_DATA6); 
....................    output_float(LCD_DATA7); 
....................   #else 
....................    lcdtris.data = 0xF; 
....................   #endif 
....................  #endif 
....................          
....................    lcd_output_rw(1); 
....................    delay_cycles(1); 
....................    lcd_output_enable(1); 
....................    delay_cycles(1); 
....................    high = lcd_read_nibble(); 
....................        
....................    lcd_output_enable(0); 
....................    delay_cycles(1); 
....................    lcd_output_enable(1); 
....................    delay_us(1); 
....................    low = lcd_read_nibble(); 
....................        
....................    lcd_output_enable(0); 
....................  
....................  #if defined(__PCB__) 
....................    set_tris_lcd(LCD_OUTPUT_MAP); 
....................  #else 
....................   #if (defined(LCD_DATA4) && defined(LCD_DATA5) && defined(LCD_DATA6) && defined(LCD_DATA7)) 
....................    output_drive(LCD_DATA4); 
....................    output_drive(LCD_DATA5); 
....................    output_drive(LCD_DATA6); 
....................    output_drive(LCD_DATA7); 
....................   #else 
....................    lcdtris.data = 0x0; 
....................   #endif 
....................  #endif 
....................  
....................    return( (high<<4) | low); 
.................... } 
....................  
.................... unsigned int8 lcd_read_nibble(void) 
.................... { 
....................   #if (defined(LCD_DATA4) && defined(LCD_DATA5) && defined(LCD_DATA6) && defined(LCD_DATA7)) 
....................    unsigned int8 n = 0x00; 
....................  
....................    /* Read the data port */ 
....................    n |= input(LCD_DATA4); 
....................    n |= input(LCD_DATA5) << 1; 
....................    n |= input(LCD_DATA6) << 2; 
....................    n |= input(LCD_DATA7) << 3; 
....................     
....................    return(n); 
....................   #else 
....................    return(lcd.data); 
....................   #endif 
.................... } 
....................  
.................... void lcd_send_nibble(unsigned int8 n) 
.................... { 
....................   #if (defined(LCD_DATA4) && defined(LCD_DATA5) && defined(LCD_DATA6) && defined(LCD_DATA7)) 
....................    /* Write to the data port */ 
....................    output_bit(LCD_DATA4, bit_test(n, 0)); 
....................    output_bit(LCD_DATA5, bit_test(n, 1)); 
....................    output_bit(LCD_DATA6, bit_test(n, 2)); 
....................    output_bit(LCD_DATA7, bit_test(n, 3)); 
....................   #else       
....................    lcdlat.data = n; 
....................   #endif 
....................        
....................    delay_cycles(1); 
....................    lcd_output_enable(1); 
....................    delay_us(2); 
....................    lcd_output_enable(0); 
.................... } 
....................  
.................... void lcd_send_byte(unsigned int8 address, unsigned int8 n) 
.................... { 
....................   #if defined(__PCB__) 
....................    set_tris_lcd(LCD_OUTPUT_MAP); 
....................   #else 
....................    lcd_enable_tris(); 
....................    lcd_rs_tris(); 
....................    lcd_rw_tris(); 
....................   #endif 
....................  
....................    lcd_output_rs(0); 
....................    while ( bit_test(lcd_read_byte(),7) ) ; 
....................    lcd_output_rs(address); 
....................    delay_cycles(1); 
....................    lcd_output_rw(0); 
....................    delay_cycles(1); 
....................    lcd_output_enable(0); 
....................    lcd_send_nibble(n >> 4); 
....................    lcd_send_nibble(n & 0xf); 
.................... } 
....................  
.................... #if defined(LCD_EXTENDED_NEWLINE) 
.................... unsigned int8 g_LcdX, g_LcdY; 
.................... #endif 
....................  
.................... void lcd_init(void)  
.................... { 
....................    unsigned int8 i; 
....................    unsigned int8 LCD_INIT_STRING[4] = {0x20 | (LCD_TYPE << 2), 0xc, 1, 6}; 
....................                              // These bytes need to be sent to the LCD 
....................                              // to start it up. 
....................     
....................  
....................    lcd_output_enable(0); 
....................    lcd_output_rs(0); 
....................    lcd_output_rw(0); 
....................  
....................  #if defined(__PCB__) 
....................    set_tris_lcd(LCD_OUTPUT_MAP); 
....................  #else 
....................   #if (defined(LCD_DATA4) && defined(LCD_DATA5) && defined(LCD_DATA6) && defined(LCD_DATA7)) 
....................    output_drive(LCD_DATA4); 
....................    output_drive(LCD_DATA5); 
....................    output_drive(LCD_DATA6); 
....................    output_drive(LCD_DATA7); 
....................   #else 
....................    lcdtris.data = 0x0; 
....................   #endif 
....................    lcd_enable_tris(); 
....................    lcd_rs_tris(); 
....................    lcd_rw_tris(); 
....................  #endif 
....................      
....................    delay_ms(15); 
....................    for(i=1;i<=3;++i) 
....................    { 
....................        lcd_send_nibble(3); 
....................        delay_ms(5); 
....................    } 
....................     
....................    lcd_send_nibble(2); 
....................    delay_ms(5); 
....................    for(i=0;i<=3;++i) 
....................       lcd_send_byte(0,LCD_INIT_STRING[i]); 
....................  
....................   #if defined(LCD_EXTENDED_NEWLINE) 
....................    g_LcdX = 0; 
....................    g_LcdY = 0; 
....................   #endif 
.................... } 
....................  
.................... void lcd_gotoxy(unsigned int8 x, unsigned int8 y) 
.................... { 
....................    unsigned int8 address; 
....................     
....................    if(y!=1) 
....................       address=LCD_LINE_TWO; 
....................    else 
....................       address=0; 
....................       
....................    address+=x-1; 
....................    lcd_send_byte(0,0x80|address); 
....................  
....................   #if defined(LCD_EXTENDED_NEWLINE) 
....................    g_LcdX = x - 1; 
....................    g_LcdY = y - 1; 
....................   #endif 
.................... } 
....................  
.................... void lcd_putc(char c) 
.................... { 
....................    switch (c) 
....................    { 
....................       case '\a'   :  lcd_gotoxy(1,1);     break; 
....................  
....................       case '\f'   :  lcd_send_byte(0,1); 
....................                      delay_ms(2); 
....................                     #if defined(LCD_EXTENDED_NEWLINE) 
....................                      g_LcdX = 0; 
....................                      g_LcdY = 0; 
....................                     #endif 
....................                      break; 
....................  
....................      #if defined(LCD_EXTENDED_NEWLINE) 
....................       case '\r'   :  lcd_gotoxy(1, g_LcdY+1);   break; 
....................       case '\n'   : 
....................          while (g_LcdX++ < LCD_LINE_LENGTH) 
....................          { 
....................             lcd_send_byte(1, ' '); 
....................          } 
....................          lcd_gotoxy(1, g_LcdY+2); 
....................          break; 
....................      #else 
....................       case '\n'   : lcd_gotoxy(1,2);        break; 
....................      #endif 
....................       
....................       case '\b'   : lcd_send_byte(0,0x10);  break; 
....................       
....................      #if defined(LCD_EXTENDED_NEWLINE) 
....................       default     :  
....................          if (g_LcdX < LCD_LINE_LENGTH) 
....................          { 
....................             lcd_send_byte(1, c); 
....................             g_LcdX++; 
....................          } 
....................          break; 
....................      #else 
....................       default     : lcd_send_byte(1,c);     break; 
....................      #endif 
....................    } 
.................... } 
....................   
.................... char lcd_getc(unsigned int8 x, unsigned int8 y) 
.................... { 
....................    char value; 
....................  
....................    lcd_gotoxy(x,y); 
....................    while ( bit_test(lcd_read_byte(),7) ); // wait until busy flag is low 
....................    lcd_output_rs(1); 
....................    value = lcd_read_byte(); 
....................    lcd_output_rs(0); 
....................     
....................    return(value); 
.................... } 
....................  
.................... // write a custom character to the ram 
.................... // which is 0-7 and specifies which character array we are modifying. 
.................... // ptr points to an array of 8 bytes, where each byte is the next row of 
.................... //    pixels.  only bits 0-4 are used.  the last row is the cursor row, and 
.................... //    usually you will want to leave this byte 0x00. 
.................... void lcd_set_cgram_char(unsigned int8 which, unsigned int8 *ptr) 
.................... { 
....................    unsigned int i; 
....................  
....................    which <<= 3; 
....................    which &= 0x38; 
....................  
....................    lcd_send_byte(0, 0x40 | which);  //set cgram address 
....................  
....................    for(i=0; i<8; i++) 
....................    { 
....................       lcd_send_byte(1, *ptr++); 
....................    } 
....................    
....................    #if defined(LCD_EXTENDED_NEWLINE) 
....................     lcd_gotoxy(g_LcdX+1, g_LcdY+1);  //set ddram address 
....................    #endif 
.................... } 
....................  
.................... void lcd_cursor_on(int1 on) 
.................... { 
....................    if (on) 
....................    { 
....................       lcd_send_byte(0,0x0F);           //turn LCD cursor ON 
....................    } 
....................    else 
....................    { 
....................       lcd_send_byte(0,0x0C);           //turn LCD cursor OFF 
....................    } 
.................... } 
....................  
.................... #endif 
....................  
.................... #USE DELAY(CLOCK=4000000) 
002C:  MOVLW  23
002D:  MOVWF  04
002E:  BCF    03.7
002F:  MOVF   00,W
0030:  BTFSC  03.2
0031:  GOTO   040
0032:  MOVLW  01
0033:  MOVWF  78
0034:  CLRF   77
0035:  DECFSZ 77,F
0036:  GOTO   035
0037:  DECFSZ 78,F
0038:  GOTO   034
0039:  MOVLW  4A
003A:  MOVWF  77
003B:  DECFSZ 77,F
003C:  GOTO   03B
003D:  GOTO   03E
003E:  DECFSZ 00,F
003F:  GOTO   032
0040:  RETURN
.................... #FUSES XT,PROTECT,NOWDT,NOBROWNOUT,PUT,NOLVP 
.................... #DEFINE SW PORTC,0 
.................... #DEFINE DIP1 PORTC,1 
.................... #DEFINE DIP2 PORTC,2 
.................... #BYTE PORTB= 6 
.................... #BYTE PORTC=7 
.................... Byte CONST horario_4[4]= {0b1000, 
....................                           0b0100, 
....................                           0b0010, 
....................                           0b0001};//configuracion para 4 tiempos 
.................... Byte CONST antih_4[4]={0b0001, 
....................                     0b0010, 
....................                     0b0100, 
....................                     0b1000}; 
.................... Byte CONST horario_8[8]= {0b1000, 
....................                           0b1100, 
....................                           0b0100, 
....................                           0b0110, 
....................                           0b0010, 
....................                           0b0011, 
....................                           0b0001, 
....................                           0b1001};//configuracion para 8 tiempos 
.................... Byte CONST antih_8[8]= {0b1001, 
....................                         0b0001, 
....................                         0b0011, 
....................                         0b0010, 
....................                         0b0110, 
....................                         0b0100, 
....................                         0b1100, 
....................                         0b1000};//configuracion para 8 tiempos 
....................  
....................  
....................  
....................  
.................... VOID MAIN() 
0041:  MOVF   03,W
0042:  ANDLW  1F
0043:  MOVWF  03
0044:  BSF    03.5
0045:  BSF    03.6
0046:  MOVF   09,W
0047:  ANDLW  C0
0048:  MOVWF  09
0049:  BCF    03.6
004A:  BCF    1F.4
004B:  BCF    1F.5
004C:  MOVLW  00
004D:  BSF    03.6
004E:  MOVWF  08
004F:  BCF    03.5
0050:  CLRF   07
0051:  CLRF   08
0052:  CLRF   09
0053:  BCF    03.7
.................... { 
....................    //lcd_init(); 
....................    INT cont; 
....................    SET_TRIS_B(0B000000);    //Configura el puerto B 
0054:  MOVLW  00
0055:  BSF    03.5
0056:  BCF    03.6
0057:  MOVWF  06
....................    PORTB=0; 
0058:  BCF    03.5
0059:  CLRF   06
....................    while(TRUE){ 
....................    cont=0; 
005A:  CLRF   21
....................    //motor 8 pasos 
....................    if(BIT_TEST(SW)){ 
005B:  BTFSS  07.0
005C:  GOTO   084
....................       if(BIT_TEST(DIP1)){ 
005D:  BTFSS  07.1
005E:  GOTO   070
....................          while(cont<8){ 
005F:  MOVF   21,W
0060:  SUBLW  07
0061:  BTFSS  03.0
0062:  GOTO   070
....................              // LCD_GOTOXY(5,1); 
....................             //  LCD_PUTC("Control"); 
....................             PORTB=horario_8[cont]; 
0063:  MOVF   21,W
0064:  CALL   014
0065:  MOVWF  78
0066:  MOVWF  06
....................             delay_ms(500); 
0067:  MOVLW  02
0068:  MOVWF  22
0069:  MOVLW  FA
006A:  MOVWF  23
006B:  CALL   02C
006C:  DECFSZ 22,F
006D:  GOTO   069
....................             cont++; 
006E:  INCF   21,F
006F:  GOTO   05F
....................          } 
....................       } 
....................       //motor 4 pasos 
....................        if((BIT_TEST(DIP2))) 
0070:  BTFSS  07.2
0071:  GOTO   083
....................          while(cont<4){ 
0072:  MOVF   21,W
0073:  SUBLW  03
0074:  BTFSS  03.0
0075:  GOTO   083
....................           
....................             PORTB=horario_4[cont]; 
0076:  MOVF   21,W
0077:  CALL   004
0078:  MOVWF  78
0079:  MOVWF  06
....................             delay_ms(500); 
007A:  MOVLW  02
007B:  MOVWF  22
007C:  MOVLW  FA
007D:  MOVWF  23
007E:  CALL   02C
007F:  DECFSZ 22,F
0080:  GOTO   07C
....................             cont++; 
0081:  INCF   21,F
0082:  GOTO   072
....................             } 
....................        } 
0083:  GOTO   0AA
....................     
....................       else{ 
....................        
....................          if(BIT_TEST(DIP1)){ 
0084:  BTFSS  07.1
0085:  GOTO   097
....................          while(cont<8){ 
0086:  MOVF   21,W
0087:  SUBLW  07
0088:  BTFSS  03.0
0089:  GOTO   097
....................                 
....................             PORTB=antih_8[cont]; 
008A:  MOVF   21,W
008B:  CALL   020
008C:  MOVWF  78
008D:  MOVWF  06
....................             delay_ms(500); 
008E:  MOVLW  02
008F:  MOVWF  22
0090:  MOVLW  FA
0091:  MOVWF  23
0092:  CALL   02C
0093:  DECFSZ 22,F
0094:  GOTO   090
....................             cont++; 
0095:  INCF   21,F
0096:  GOTO   086
....................          } 
....................       } 
....................       //motor 4 pasos 
....................        if((BIT_TEST(DIP2))) 
0097:  BTFSS  07.2
0098:  GOTO   0AA
....................          while(cont<4){ 
0099:  MOVF   21,W
009A:  SUBLW  03
009B:  BTFSS  03.0
009C:  GOTO   0AA
....................           
....................             PORTB=antih_4[cont]; 
009D:  MOVF   21,W
009E:  CALL   00C
009F:  MOVWF  78
00A0:  MOVWF  06
....................             delay_ms(500); 
00A1:  MOVLW  02
00A2:  MOVWF  22
00A3:  MOVLW  FA
00A4:  MOVWF  23
00A5:  CALL   02C
00A6:  DECFSZ 22,F
00A7:  GOTO   0A3
....................             cont++; 
00A8:  INCF   21,F
00A9:  GOTO   099
....................             } 
....................        } 
00AA:  GOTO   05A
....................     
....................        
....................        
....................       } 
....................    } 
....................  
00AB:  SLEEP
....................     
....................  
....................  
....................  

Configuration Fuses:
   Word  1: 2CA1   XT NOWDT PUT MCLR PROTECT NOCPD NOBROWNOUT IESO FCMEN NOLVP NODEBUG
   Word  2: 3FFF   BORV40 NOWRT
